target datalayout = "e-m:e-p270:32:32-p271:32:32-p272:64:64-i64:64-i128:128-f80:128-n8:16:32:64-S128"
target triple = "x86_64-pc-linux-gnu"

%class.LIR_Opr = type { i64 }
%class.GrowableArrayBase = type { i32, i32 }
%class.GrowableArrayMetadata = type { i64 }
%class.Interval = type { i32, i8, ptr, %class.GrowableArray.21, ptr, ptr, i32, i32, i32, i32, %class.LIR_Opr, ptr, ptr, ptr, ptr, i32, i8, i32, i32, ptr }
%class.GrowableArray.21 = type { %class.GrowableArrayWithAllocator.22, %class.GrowableArrayMetadata }
%class.GrowableArrayWithAllocator.22 = type { %class.GrowableArrayView.23 }
%class.GrowableArrayView.23 = type { %class.GrowableArrayBase, ptr }

@g_assert_poison = external global ptr, align 8
@_ZN11LIR_OprFact10illegalOprE = external global %class.LIR_Opr, align 8
@.str.23 = private unnamed_addr constant [32 x i8] c"src/hotspot/share/c1/c1_LIR.hpp\00", align 1

; Function Attrs: mustprogress nounwind uwtable
define linkonce_odr hidden void @_ZN7LIR_OprC2El(ptr noundef nonnull align 8 dereferenceable(8) %0, i64 noundef %1) unnamed_addr #1 comdat align 2 {
  %3 = alloca ptr, align 8
  %4 = alloca i64, align 8
  store ptr %0, ptr %3, align 8
  store i64 %1, ptr %4, align 8
  %5 = load ptr, ptr %3, align 8
  %6 = getelementptr inbounds %class.LIR_Opr, ptr %5, i32 0, i32 0
  %7 = load i64, ptr %4, align 8
  store i64 %7, ptr %6, align 8
  ret void
}

; Function Attrs: mustprogress nounwind uwtable
define linkonce_odr hidden void @_ZN7LIR_OprC2Ev(ptr noundef nonnull align 8 dereferenceable(8) %0) unnamed_addr #1 comdat align 2 {
  %2 = alloca ptr, align 8
  store ptr %0, ptr %2, align 8
  %3 = load ptr, ptr %2, align 8
  %4 = getelementptr inbounds %class.LIR_Opr, ptr %3, i32 0, i32 0
  store i64 0, ptr %4, align 8
  ret void
}

; Function Attrs: mustprogress nounwind uwtable
define linkonce_odr hidden noundef ptr @_ZNK8Interval12split_parentEv(ptr noundef nonnull align 8 dereferenceable(136) %0) #1 comdat align 2 {
  %2 = alloca ptr, align 8
  store ptr %0, ptr %2, align 8
  %3 = load ptr, ptr %2, align 8
  %4 = getelementptr inbounds %class.Interval, ptr %3, i32 0, i32 12
  %5 = load ptr, ptr %4, align 8
  ret ptr %5
}

; Function Attrs: mustprogress nounwind uwtable
define linkonce_odr hidden i64 @_ZN11LIR_OprFact5stackEi9BasicType(i32 noundef %0, i8 noundef zeroext %1) #1 comdat align 2 {
  %3 = alloca %class.LIR_Opr, align 8
  %4 = alloca i32, align 4
  %5 = alloca i8, align 1
  %6 = alloca %class.LIR_Opr, align 8
  %7 = alloca %class.LIR_Opr, align 8
  %8 = alloca %class.LIR_Opr, align 8
  %9 = alloca %class.LIR_Opr, align 8
  %10 = alloca %class.LIR_Opr, align 8
  %11 = alloca %class.LIR_Opr, align 8
  %12 = alloca %class.LIR_Opr, align 8
  store i32 %0, ptr %4, align 4
  store i8 %1, ptr %5, align 1
  call void @_ZN7LIR_OprC2Ev(ptr noundef nonnull align 8 dereferenceable(8) %3)
  %13 = load i8, ptr %5, align 1
  %14 = zext i8 %13 to i32
  switch i32 %14, label %64 [
    i32 12, label %15
    i32 13, label %15
    i32 17, label %22
    i32 10, label %29
    i32 15, label %36
    i32 11, label %43
    i32 6, label %50
    i32 7, label %57
  ]

15:                                               ; preds = %2, %2
  %16 = load i32, ptr %4, align 4
  %17 = shl i32 %16, 14
  %18 = or i32 %17, 24
  %19 = or i32 %18, 1
  %20 = or i32 %19, 0
  %21 = sext i32 %20 to i64
  call void @_ZN7LIR_OprC2El(ptr noundef nonnull align 8 dereferenceable(8) %6, i64 noundef %21)
  call void @llvm.memcpy.p0.p0.i64(ptr align 8 %3, ptr align 8 %6, i64 8, i1 false)
  br label %68

22:                                               ; preds = %2
  %23 = load i32, ptr %4, align 4
  %24 = shl i32 %23, 14
  %25 = or i32 %24, 56
  %26 = or i32 %25, 1
  %27 = or i32 %26, 0
  %28 = sext i32 %27 to i64
  call void @_ZN7LIR_OprC2El(ptr noundef nonnull align 8 dereferenceable(8) %7, i64 noundef %28)
  call void @llvm.memcpy.p0.p0.i64(ptr align 8 %3, ptr align 8 %7, i64 8, i1 false)
  br label %68

29:                                               ; preds = %2
  %30 = load i32, ptr %4, align 4
  %31 = shl i32 %30, 14
  %32 = or i32 %31, 8
  %33 = or i32 %32, 1
  %34 = or i32 %33, 0
  %35 = sext i32 %34 to i64
  call void @_ZN7LIR_OprC2El(ptr noundef nonnull align 8 dereferenceable(8) %8, i64 noundef %35)
  call void @llvm.memcpy.p0.p0.i64(ptr align 8 %3, ptr align 8 %8, i64 8, i1 false)
  br label %68

36:                                               ; preds = %2
  %37 = load i32, ptr %4, align 4
  %38 = shl i32 %37, 14
  %39 = or i32 %38, 32
  %40 = or i32 %39, 1
  %41 = or i32 %40, 0
  %42 = sext i32 %41 to i64
  call void @_ZN7LIR_OprC2El(ptr noundef nonnull align 8 dereferenceable(8) %9, i64 noundef %42)
  call void @llvm.memcpy.p0.p0.i64(ptr align 8 %3, ptr align 8 %9, i64 8, i1 false)
  br label %68

43:                                               ; preds = %2
  %44 = load i32, ptr %4, align 4
  %45 = shl i32 %44, 14
  %46 = or i32 %45, 16
  %47 = or i32 %46, 1
  %48 = or i32 %47, 128
  %49 = sext i32 %48 to i64
  call void @_ZN7LIR_OprC2El(ptr noundef nonnull align 8 dereferenceable(8) %10, i64 noundef %49)
  call void @llvm.memcpy.p0.p0.i64(ptr align 8 %3, ptr align 8 %10, i64 8, i1 false)
  br label %68

50:                                               ; preds = %2
  %51 = load i32, ptr %4, align 4
  %52 = shl i32 %51, 14
  %53 = or i32 %52, 40
  %54 = or i32 %53, 1
  %55 = or i32 %54, 0
  %56 = sext i32 %55 to i64
  call void @_ZN7LIR_OprC2El(ptr noundef nonnull align 8 dereferenceable(8) %11, i64 noundef %56)
  call void @llvm.memcpy.p0.p0.i64(ptr align 8 %3, ptr align 8 %11, i64 8, i1 false)
  br label %68

57:                                               ; preds = %2
  %58 = load i32, ptr %4, align 4
  %59 = shl i32 %58, 14
  %60 = or i32 %59, 48
  %61 = or i32 %60, 1
  %62 = or i32 %61, 128
  %63 = sext i32 %62 to i64
  call void @_ZN7LIR_OprC2El(ptr noundef nonnull align 8 dereferenceable(8) %12, i64 noundef %63)
  call void @llvm.memcpy.p0.p0.i64(ptr align 8 %3, ptr align 8 %12, i64 8, i1 false)
  br label %68

64:                                               ; preds = %2
  br label %65

65:                                               ; preds = %64
  %66 = load ptr, ptr @g_assert_poison, align 8
  store i8 88, ptr %66, align 1
  call void @_Z28report_should_not_reach_herePKci(ptr noundef @.str.23, i32 noundef 833) #9
  unreachable

67:                                               ; No predecessors!
  call void @llvm.memcpy.p0.p0.i64(ptr align 8 %3, ptr align 8 @_ZN11LIR_OprFact10illegalOprE, i64 8, i1 false)
  br label %68

68:                                               ; preds = %67, %57, %50, %43, %36, %29, %22, %15
  %69 = getelementptr inbounds %class.LIR_Opr, ptr %3, i32 0, i32 0
  %70 = load i64, ptr %69, align 8
  ret i64 %70
}

; Function Attrs: mustprogress nounwind uwtable
define linkonce_odr hidden noundef zeroext i8 @_ZNK8Interval4typeEv(ptr noundef nonnull align 8 dereferenceable(136) %0) #1 comdat align 2 {
  %2 = alloca ptr, align 8
  store ptr %0, ptr %2, align 8
  %3 = load ptr, ptr %2, align 8
  %4 = getelementptr inbounds %class.Interval, ptr %3, i32 0, i32 1
  %5 = load i8, ptr %4, align 4
  ret i8 %5
}

; Function Attrs: mustprogress nounwind uwtable
define linkonce_odr hidden noundef i32 @_ZNK8Interval20canonical_spill_slotEv(ptr noundef nonnull align 8 dereferenceable(136) %0) #1 comdat align 2 {
  %2 = alloca ptr, align 8
  store ptr %0, ptr %2, align 8
  %3 = load ptr, ptr %2, align 8
  %4 = call noundef ptr @_ZNK8Interval12split_parentEv(ptr noundef nonnull align 8 dereferenceable(136) %3)
  %5 = getelementptr inbounds %class.Interval, ptr %4, i32 0, i32 15
  %6 = load i32, ptr %5, align 8
  ret i32 %6
}

; Function Attrs: mustprogress nounwind uwtable
define hidden i64 @_ZN10LinearScan19canonical_spill_oprEP8Interval(ptr noundef nonnull align 8 dereferenceable(256) %0, ptr noundef %1) #1 align 2 {
  %3 = alloca %class.LIR_Opr, align 8
  %4 = alloca ptr, align 8
  %5 = alloca ptr, align 8
  store ptr %0, ptr %4, align 8
  store ptr %1, ptr %5, align 8
  %6 = load ptr, ptr %5, align 8
  %7 = call noundef i32 @_ZNK8Interval20canonical_spill_slotEv(ptr noundef nonnull align 8 dereferenceable(136) %6)
  %8 = sub nsw i32 %7, 56
  %9 = load ptr, ptr %5, align 8
  %10 = call noundef zeroext i8 @_ZNK8Interval4typeEv(ptr noundef nonnull align 8 dereferenceable(136) %9)
  %11 = call i64 @_ZN11LIR_OprFact5stackEi9BasicType(i32 noundef %8, i8 noundef zeroext %10)
  %12 = getelementptr inbounds %class.LIR_Opr, ptr %3, i32 0, i32 0
  store i64 %11, ptr %12, align 8
  %13 = getelementptr inbounds %class.LIR_Opr, ptr %3, i32 0, i32 0
  %14 = load i64, ptr %13, align 8
  ret i64 %14
}