; Function Attrs: mustprogress nounwind uwtable
define hidden i64 @_ZN10LinearScan19canonical_spill_oprEP8Interval(ptr nocapture noundef nonnull readnone align 8 dereferenceable(256) %0, ptr nocapture noundef readonly %1) local_unnamed_addr #0 align 2 {
  %3 = getelementptr inbounds i8, ptr %1, i64 88
  %4 = load ptr, ptr %3, align 8
  %5 = getelementptr inbounds i8, ptr %4, i64 112
  %6 = load i32, ptr %5, align 8
  %7 = getelementptr inbounds i8, ptr %1, i64 4
  %8 = load i8, ptr %7, align 4
  %switch.tableidx = add i8 %8, -6
  %9 = icmp ult i8 %switch.tableidx, 12
  br i1 %9, label %switch.hole_check, label %10

10:                                               ; preds = %switch.hole_check, %2
  %11 = load ptr, ptr @g_assert_poison, align 8
  store i8 88, ptr %11, align 1
  tail call void @_Z28report_should_not_reach_herePKci(ptr noundef nonnull @.str.23, i32 noundef 833) #23
  unreachable

switch.hole_check:                                ; preds = %2
  %switch.maskindex = zext nneg i8 %switch.tableidx to i16
  %switch.shifted = lshr i16 2803, %switch.maskindex
  %switch.lobit = trunc i16 %switch.shifted to i1
  br i1 %switch.lobit, label %switch.lookup, label %10

switch.lookup:                                    ; preds = %switch.hole_check
  %12 = zext nneg i8 %switch.tableidx to i64
  %switch.gep = getelementptr inbounds [12 x i32], ptr @switch.table._ZN10LinearScan14assign_reg_numEP13GrowableArrayIP6LIR_OpEP14IntervalWalker, i64 0, i64 %12
  %switch.load = load i32, ptr %switch.gep, align 4
  %13 = shl i32 %6, 14
  %14 = add i32 %13, -917504
  %15 = or disjoint i32 %switch.load, %14
  %.sroa.014.0.i = sext i32 %15 to i64
  ret i64 %.sroa.014.0.i
}